; Function Attrs: mustprogress nounwind uwtable
define dso_local noundef range(i32 1, 0) i32 @_ZN5clang27MultiplexExternalSemaSource22hasExternalDefinitionsEPKNS_4DeclE(ptr noundef nonnull align 8 dereferenceable(48) %0, ptr noundef %1) unnamed_addr #0 align 2 {
  %3 = getelementptr inbounds nuw i8, ptr %0, i64 16
  %4 = load ptr, ptr %3, align 8
  %5 = tail call noundef i64 @_ZNK4llvm15SmallVectorBaseIjE4sizeEv(ptr noundef nonnull align 8 dereferenceable(16) %3) #6
  %6 = getelementptr inbounds ptr, ptr %4, i64 %5
  %.not15 = icmp eq i64 %5, 0
  br i1 %.not15, label %._crit_edge, label %.lr.ph

7:                                                ; preds = %.lr.ph
  %8 = getelementptr inbounds i8, ptr %.01316, i64 8
  %.not = icmp eq ptr %8, %6
  br i1 %.not, label %._crit_edge, label %.lr.ph

.lr.ph:                                           ; preds = %2, %7
  %.01316 = phi ptr [ %8, %7 ], [ %4, %2 ]
  %9 = load ptr, ptr %.01316, align 8
  %10 = load ptr, ptr %9, align 8
  %11 = getelementptr inbounds i8, ptr %10, i64 104
  %12 = load ptr, ptr %11, align 8
  %13 = tail call noundef i32 %12(ptr noundef nonnull align 8 dereferenceable(16) %9, ptr noundef %1) #6
  %14 = and i32 %13, -3
  %or.cond.not = icmp eq i32 %14, 0
  br i1 %or.cond.not, label %7, label %._crit_edge

._crit_edge:                                      ; preds = %.lr.ph, %7, %2
  %.0 = phi i32 [ 2, %2 ], [ 2, %7 ], [ %13, %.lr.ph ]
  ret i32 %.0
}